Certificate:
    Data:
        Version: 3 (0x2)
        Serial Number: 2 (0x2)
    Signature Algorithm: sha256WithRSAEncryption
        Issuer: C=CN, ST=GD, L=Guangzhou, O=SYSU, OU=SDCS, CN=SYSU CA/name=Ren's Server/emailAddress=0_0@liuren.link
        Validity
            Not Before: Oct 26 13:03:27 2016 GMT
            Not After : Oct 24 13:03:27 2026 GMT
        Subject: C=CN, ST=GD, L=Guangzhou, O=SYSU, OU=SDCS, CN=Ren's Client/name=Ren's Client/emailAddress=0_0@liuren.link
        Subject Public Key Info:
            Public Key Algorithm: rsaEncryption
                Public-Key: (2048 bit)
                Modulus:
                    00:d0:5b:02:58:63:46:e9:70:86:55:c4:15:b0:f0:
                    48:e1:6a:3a:3e:79:52:fe:d9:26:0e:8d:cf:31:4c:
                    b0:b2:34:a1:08:e3:27:32:64:cc:44:5b:c7:13:34:
                    73:43:f7:a9:9d:40:21:48:91:7e:96:16:fa:ce:08:
                    87:b2:46:da:70:86:44:79:00:77:f6:16:61:7c:e0:
                    25:dc:af:d1:e9:8b:d7:dc:b6:9b:11:97:47:89:23:
                    c0:f9:80:b8:8e:26:35:0e:69:68:35:97:0e:8e:70:
                    61:6c:c5:5a:23:c4:db:f1:22:f0:a9:2c:bf:9e:f6:
                    0b:41:c6:80:0e:b8:25:1a:d7:8a:4d:c6:c3:84:c7:
                    39:b2:f4:b5:17:af:f4:74:c1:eb:31:39:6c:dd:eb:
                    36:b7:37:5a:45:32:e7:a3:4a:68:4a:51:39:fc:b2:
                    09:a2:1c:7c:8d:d6:b4:7e:b1:78:63:5d:c1:11:26:
                    15:78:be:e1:22:18:39:36:d0:ba:a2:43:30:f8:16:
                    7a:90:d4:d5:ee:03:16:a0:87:22:04:20:d2:92:84:
                    92:52:d4:eb:4d:97:61:9c:32:6b:96:ec:de:f3:be:
                    40:c6:29:44:9c:7d:64:08:95:6d:87:ea:54:c6:d8:
                    e3:aa:59:b2:70:93:70:2c:17:e7:5d:ab:98:4d:61:
                    65:a9
                Exponent: 65537 (0x10001)
        X509v3 extensions:
            X509v3 Basic Constraints: 
                CA:FALSE
            Netscape Comment: 
                Easy-RSA Generated Certificate
            X509v3 Subject Key Identifier: 
                FC:2E:3C:1D:D6:C9:4D:8A:80:E4:C4:A5:C6:94:B7:20:7F:54:BD:6E
            X509v3 Authority Key Identifier: 
                keyid:A0:D0:6E:B1:FC:F4:21:58:25:72:22:FD:84:1D:5B:5F:41:92:DC:56
                DirName:/C=CN/ST=GD/L=Guangzhou/O=SYSU/OU=SDCS/CN=SYSU CA/name=Ren's Server/emailAddress=0_0@liuren.link
                serial:B6:5D:7D:62:04:A1:3C:1E

            X509v3 Extended Key Usage: 
                TLS Web Client Authentication
            X509v3 Key Usage: 
                Digital Signature
            X509v3 Subject Alternative Name: 
                DNS:client1
    Signature Algorithm: sha256WithRSAEncryption
         92:96:b6:70:4b:a4:0d:b5:1b:1f:6b:6f:7c:2b:3a:31:20:85:
         c6:b1:83:26:91:fa:d3:2d:03:bc:06:7f:d8:35:96:7a:8a:95:
         9c:57:a5:79:26:63:15:78:74:11:39:f6:b7:50:7b:04:a1:0e:
         26:74:d5:98:66:0e:ac:d8:f2:c5:a6:f0:2a:89:f5:c9:7c:16:
         c6:1a:97:c3:7c:26:d6:41:a4:0f:6a:82:23:c7:3c:9c:2c:55:
         8c:d1:66:00:1a:f1:27:26:cc:d7:31:23:14:81:5b:04:1a:0d:
         19:53:be:ba:51:59:0c:0d:55:9c:60:b4:1d:aa:68:cc:11:2c:
         c7:52:01:89:9f:58:ec:f1:6d:3b:ac:c0:e3:33:c3:f5:db:75:
         b5:2e:93:c9:cc:28:f9:39:24:74:16:44:2d:d9:2f:1d:bd:09:
         35:d4:71:1c:70:e8:f4:ef:2a:27:05:23:27:a9:bf:cb:f7:be:
         1d:90:24:e9:13:98:4c:f1:4a:26:92:51:0e:d5:36:96:8d:42:
         72:f9:85:ee:f3:fd:49:fc:35:be:e7:e4:e9:77:d3:7e:81:92:
         7b:f2:ce:4f:15:4c:29:2d:f2:5d:e1:91:6c:e7:96:79:99:8f:
         33:14:60:50:16:d4:f3:9f:e3:e1:ba:e8:60:8a:13:af:01:4c:
         0f:f5:72:19
-----BEGIN CERTIFICATE-----
MIIFDjCCA/agAwIBAgIBAjANBgkqhkiG9w0BAQsFADCBlTELMAkGA1UEBhMCQ04x
CzAJBgNVBAgTAkdEMRIwEAYDVQQHEwlHdWFuZ3pob3UxDTALBgNVBAoTBFNZU1Ux
DTALBgNVBAsTBFNEQ1MxEDAOBgNVBAMTB1NZU1UgQ0ExFTATBgNVBCkTDFJlbidz
IFNlcnZlcjEeMBwGCSqGSIb3DQEJARYPMF8wQGxpdXJlbi5saW5rMB4XDTE2MTAy
NjEzMDMyN1oXDTI2MTAyNDEzMDMyN1owgZoxCzAJBgNVBAYTAkNOMQswCQYDVQQI
EwJHRDESMBAGA1UEBxMJR3Vhbmd6aG91MQ0wCwYDVQQKEwRTWVNVMQ0wCwYDVQQL
EwRTRENTMRUwEwYDVQQDEwxSZW4ncyBDbGllbnQxFTATBgNVBCkTDFJlbidzIENs
aWVudDEeMBwGCSqGSIb3DQEJARYPMF8wQGxpdXJlbi5saW5rMIIBIjANBgkqhkiG
9w0BAQEFAAOCAQ8AMIIBCgKCAQEA0FsCWGNG6XCGVcQVsPBI4Wo6PnlS/tkmDo3P
MUywsjShCOMnMmTMRFvHEzRzQ/epnUAhSJF+lhb6zgiHskbacIZEeQB39hZhfOAl
3K/R6YvX3LabEZdHiSPA+YC4jiY1DmloNZcOjnBhbMVaI8Tb8SLwqSy/nvYLQcaA
DrglGteKTcbDhMc5svS1F6/0dMHrMTls3es2tzdaRTLno0poSlE5/LIJohx8jda0
frF4Y13BESYVeL7hIhg5NtC6okMw+BZ6kNTV7gMWoIciBCDSkoSSUtTrTZdhnDJr
luze875AxilEnH1kCJVth+pUxtjjqlmycJNwLBfnXauYTWFlqQIDAQABo4IBYDCC
AVwwCQYDVR0TBAIwADAtBglghkgBhvhCAQ0EIBYeRWFzeS1SU0EgR2VuZXJhdGVk
IENlcnRpZmljYXRlMB0GA1UdDgQWBBT8Ljwd1slNioDkxKXGlLcgf1S9bjCBygYD
VR0jBIHCMIG/gBSg0G6x/PQhWCVyIv2EHVtfQZLcVqGBm6SBmDCBlTELMAkGA1UE
BhMCQ04xCzAJBgNVBAgTAkdEMRIwEAYDVQQHEwlHdWFuZ3pob3UxDTALBgNVBAoT
BFNZU1UxDTALBgNVBAsTBFNEQ1MxEDAOBgNVBAMTB1NZU1UgQ0ExFTATBgNVBCkT
DFJlbidzIFNlcnZlcjEeMBwGCSqGSIb3DQEJARYPMF8wQGxpdXJlbi5saW5rggkA
tl19YgShPB4wEwYDVR0lBAwwCgYIKwYBBQUHAwIwCwYDVR0PBAQDAgeAMBIGA1Ud
EQQLMAmCB2NsaWVudDEwDQYJKoZIhvcNAQELBQADggEBAJKWtnBLpA21Gx9rb3wr
OjEghcaxgyaR+tMtA7wGf9g1lnqKlZxXpXkmYxV4dBE59rdQewShDiZ01ZhmDqzY
8sWm8CqJ9cl8FsYal8N8JtZBpA9qgiPHPJwsVYzRZgAa8ScmzNcxIxSBWwQaDRlT
vrpRWQwNVZxgtB2qaMwRLMdSAYmfWOzxbTuswOMzw/XbdbUuk8nMKPk5JHQWRC3Z
Lx29CTXUcRxw6PTvKicFIyepv8v3vh2QJOkTmEzxSiaSUQ7VNpaNQnL5he7z/Un8
Nb7n5Ol3036Bknvyzk8VTCkt8l3hkWznlnmZjzMUYFAW1POf4+G66GCKE68BTA/1
chk=
-----END CERTIFICATE-----
